target datalayout = "e-m:e-p270:32:32-p271:32:32-p272:64:64-i64:64-i128:128-f80:128-n8:16:32:64-S128"
target triple = "x86_64-pc-linux-gnu"

%struct.config_generic = type { ptr, i32, i32, ptr, ptr, i32, i32, i32, i32, i32, i32, i32, i32, i32, ptr, ptr, %struct.dlist_node, %struct.slist_node, %struct.slist_node, ptr, ptr, i32 }
%struct.dlist_node = type { ptr, ptr }
%struct.slist_node = type { ptr }
%struct.config_string = type { %struct.config_generic, ptr, ptr, ptr, ptr, ptr, ptr, ptr }

; Function Attrs: nounwind uwtable
define dso_local void @DefineCustomStringVariable(ptr noundef nonnull %0, ptr noundef %1, ptr noundef %2, ptr noundef nonnull %3, ptr noundef %4, i32 noundef %5, i32 noundef %6, ptr noundef %7, ptr noundef %8, ptr noundef %9) #0 {
  %11 = alloca ptr, align 8
  %12 = alloca ptr, align 8
  %13 = alloca ptr, align 8
  %14 = alloca ptr, align 8
  %15 = alloca ptr, align 8
  %16 = alloca i32, align 4
  %17 = alloca i32, align 4
  %18 = alloca ptr, align 8
  %19 = alloca ptr, align 8
  %20 = alloca ptr, align 8
  %21 = alloca ptr, align 8
  store ptr %0, ptr %11, align 8
  store ptr %1, ptr %12, align 8
  store ptr %2, ptr %13, align 8
  store ptr %3, ptr %14, align 8
  store ptr %4, ptr %15, align 8
  store i32 %5, ptr %16, align 4
  store i32 %6, ptr %17, align 4
  store ptr %7, ptr %18, align 8
  store ptr %8, ptr %19, align 8
  store ptr %9, ptr %20, align 8
  call void @llvm.lifetime.start.p0(i64 8, ptr %21) #16
  %22 = load ptr, ptr %11, align 8
  %23 = load ptr, ptr %12, align 8
  %24 = load ptr, ptr %13, align 8
  %25 = load i32, ptr %16, align 4
  %26 = load i32, ptr %17, align 4
  %27 = call ptr @init_custom_variable(ptr noundef %22, ptr noundef %23, ptr noundef %24, i32 noundef %25, i32 noundef %26, i32 noundef 3, i64 noundef 200)
  store ptr %27, ptr %21, align 8
  %28 = load ptr, ptr %14, align 8
  %29 = load ptr, ptr %21, align 8
  %30 = getelementptr inbounds nuw %struct.config_string, ptr %29, i32 0, i32 1
  store ptr %28, ptr %30, align 8
  %31 = load ptr, ptr %15, align 8
  %32 = load ptr, ptr %21, align 8
  %33 = getelementptr inbounds nuw %struct.config_string, ptr %32, i32 0, i32 2
  store ptr %31, ptr %33, align 8
  %34 = load ptr, ptr %18, align 8
  %35 = load ptr, ptr %21, align 8
  %36 = getelementptr inbounds nuw %struct.config_string, ptr %35, i32 0, i32 3
  store ptr %34, ptr %36, align 8
  %37 = load ptr, ptr %19, align 8
  %38 = load ptr, ptr %21, align 8
  %39 = getelementptr inbounds nuw %struct.config_string, ptr %38, i32 0, i32 4
  store ptr %37, ptr %39, align 8
  %40 = load ptr, ptr %20, align 8
  %41 = load ptr, ptr %21, align 8
  %42 = getelementptr inbounds nuw %struct.config_string, ptr %41, i32 0, i32 5
  store ptr %40, ptr %42, align 8
  %43 = load ptr, ptr %21, align 8
  %44 = getelementptr inbounds nuw %struct.config_string, ptr %43, i32 0, i32 0
  call void @define_custom_variable(ptr noundef %44)
  call void @llvm.lifetime.end.p0(i64 8, ptr %21) #16
  ret void
}