; Function Attrs: nounwind uwtable
define dso_local void @DefineCustomStringVariable(ptr noundef nonnull readonly captures(none) %0, ptr noundef %1, ptr noundef %2, ptr noundef nonnull %3, ptr noundef %4, i32 noundef %5, i32 noundef %6, ptr noundef %7, ptr noundef %8, ptr noundef %9) local_unnamed_addr #0 {
  %11 = tail call fastcc ptr @init_custom_variable(ptr noundef %0, ptr noundef %1, ptr noundef %2, i32 noundef %5, i32 noundef %6, i32 noundef 3, i64 noundef 200)
  %12 = getelementptr inbounds nuw i8, ptr %11, i64 144
  store ptr %3, ptr %12, align 8
  %13 = getelementptr inbounds nuw i8, ptr %11, i64 152
  store ptr %4, ptr %13, align 8
  %14 = getelementptr inbounds nuw i8, ptr %11, i64 160
  store ptr %7, ptr %14, align 8
  %15 = getelementptr inbounds nuw i8, ptr %11, i64 168
  store ptr %8, ptr %15, align 8
  %16 = getelementptr inbounds nuw i8, ptr %11, i64 176
  store ptr %9, ptr %16, align 8
  tail call fastcc void @define_custom_variable(ptr noundef %11)
  ret void
}